; Function Attrs: mustprogress uwtable
define hidden void @_ZN22func_decl_dependencies18collect_func_declsEP4exprP13obj_hashtableI9func_declE(ptr nocapture noundef nonnull readonly align 8 dereferenceable(32) %this, ptr noundef %n, ptr noundef %s) local_unnamed_addr #3 align 2 personality ptr @__gxx_personality_v0 {
entry:
  %visited.i.i = alloca %class.obj_mark, align 8
  %proc.i = alloca %struct.collect_dependencies_proc, align 8
  %0 = load ptr, ptr %this, align 8
  call void @llvm.lifetime.start.p0(i64 24, ptr nonnull %proc.i)
  store ptr %0, ptr %proc.i, align 8
  %m_set.i.i = getelementptr inbounds i8, ptr %proc.i, i64 8
  store ptr %s, ptr %m_set.i.i, align 8
  %m_ng_only.i.i = getelementptr inbounds i8, ptr %proc.i, i64 16
  store i8 0, ptr %m_ng_only.i.i, align 8
  call void @llvm.lifetime.start.p0(i64 24, ptr nonnull %visited.i.i)
  %m_marks.i.i.i = getelementptr inbounds i8, ptr %visited.i.i, i64 8
  call void @llvm.memset.p0.i64(ptr noundef nonnull align 8 dereferenceable(16) %m_marks.i.i.i, i8 0, i64 16, i1 false)
  invoke void @_Z18for_each_expr_coreI25collect_dependencies_proc8obj_markI4expr10bit_vector14default_t2uintIS2_EELb0ELb0EEvRT_RT0_PS2_(ptr noundef nonnull align 8 dereferenceable(17) %proc.i, ptr noundef nonnull align 8 dereferenceable(24) %visited.i.i, ptr noundef %n)
          to label %invoke.cont.i.i unwind label %lpad.i.i

invoke.cont.i.i:                                  ; preds = %entry
  %m_data.i.i.i.i = getelementptr inbounds i8, ptr %visited.i.i, i64 16
  %1 = load ptr, ptr %m_data.i.i.i.i, align 8
  %cmp.i.i.i.i.i = icmp eq ptr %1, null
  br i1 %cmp.i.i.i.i.i, label %_Z18collect_func_declsR11ast_managerP4exprR13obj_hashtableI9func_declEb.exit, label %if.end.i.i.i.i.i

if.end.i.i.i.i.i:                                 ; preds = %invoke.cont.i.i
  invoke void @_ZN6memory10deallocateEPv(ptr noundef nonnull %1)
          to label %_Z18collect_func_declsR11ast_managerP4exprR13obj_hashtableI9func_declEb.exit unwind label %terminate.lpad.i.i.i.i

terminate.lpad.i.i.i.i:                           ; preds = %if.end.i.i.i.i.i
  %2 = landingpad { ptr, i32 }
          catch ptr null
  %3 = extractvalue { ptr, i32 } %2, 0
  call void @__clang_call_terminate(ptr %3) #14
  unreachable

lpad.i.i:                                         ; preds = %entry
  %4 = landingpad { ptr, i32 }
          cleanup
  call void @_ZN8obj_markI4expr10bit_vector14default_t2uintIS0_EED2Ev(ptr noundef nonnull align 8 dereferenceable(24) %visited.i.i) #15
  resume { ptr, i32 } %4

_Z18collect_func_declsR11ast_managerP4exprR13obj_hashtableI9func_declEb.exit: ; preds = %invoke.cont.i.i, %if.end.i.i.i.i.i
  call void @llvm.lifetime.end.p0(i64 24, ptr nonnull %visited.i.i)
  call void @llvm.lifetime.end.p0(i64 24, ptr nonnull %proc.i)
  ret void
}